target datalayout = "e-m:e-p270:32:32-p271:32:32-p272:64:64-i64:64-i128:128-f80:128-n8:16:32:64-S128"
target triple = "x86_64-pc-linux-gnu"

%struct.Mop_Man_t_ = type { i32, i32, i32, i32, ptr, ptr, ptr, ptr }
%struct.Vec_Wrd_t_ = type { i32, i32, ptr }
%struct.Vec_Int_t_ = type { i32, i32, ptr }

; Function Attrs: inlinehint nounwind uwtable
define internal ptr @Vec_WrdEntryP(ptr noundef %0, i32 noundef %1) #3 {
  %3 = alloca ptr, align 8
  %4 = alloca i32, align 4
  store ptr %0, ptr %3, align 8, !tbaa !21
  store i32 %1, ptr %4, align 4, !tbaa !3
  %5 = load ptr, ptr %3, align 8, !tbaa !21
  %6 = getelementptr inbounds nuw %struct.Vec_Wrd_t_, ptr %5, i32 0, i32 2
  %7 = load ptr, ptr %6, align 8, !tbaa !25
  %8 = load i32, ptr %4, align 4, !tbaa !3
  %9 = sext i32 %8 to i64
  %10 = getelementptr inbounds i64, ptr %7, i64 %9
  ret ptr %10
}

; Function Attrs: inlinehint nounwind uwtable
define internal void @Vec_IntShrink(ptr noundef %0, i32 noundef %1) #3 {
  %3 = alloca ptr, align 8
  %4 = alloca i32, align 4
  store ptr %0, ptr %3, align 8, !tbaa !26
  store i32 %1, ptr %4, align 4, !tbaa !3
  %5 = load i32, ptr %4, align 4, !tbaa !3
  %6 = load ptr, ptr %3, align 8, !tbaa !26
  %7 = getelementptr inbounds nuw %struct.Vec_Int_t_, ptr %6, i32 0, i32 1
  store i32 %5, ptr %7, align 4, !tbaa !27
  ret void
}

; Function Attrs: inlinehint nounwind uwtable
define internal void @Vec_IntWriteEntry(ptr noundef %0, i32 noundef %1, i32 noundef %2) #3 {
  %4 = alloca ptr, align 8
  %5 = alloca i32, align 4
  %6 = alloca i32, align 4
  store ptr %0, ptr %4, align 8, !tbaa !26
  store i32 %1, ptr %5, align 4, !tbaa !3
  store i32 %2, ptr %6, align 4, !tbaa !3
  %7 = load i32, ptr %6, align 4, !tbaa !3
  %8 = load ptr, ptr %4, align 8, !tbaa !26
  %9 = getelementptr inbounds nuw %struct.Vec_Int_t_, ptr %8, i32 0, i32 2
  %10 = load ptr, ptr %9, align 8, !tbaa !31
  %11 = load i32, ptr %5, align 4, !tbaa !3
  %12 = sext i32 %11 to i64
  %13 = getelementptr inbounds i32, ptr %10, i64 %12
  store i32 %7, ptr %13, align 4, !tbaa !3
  ret void
}

; Function Attrs: inlinehint nounwind uwtable
define internal ptr @Mop_ManCubeOut(ptr noundef %0, i32 noundef %1) #3 {
  %3 = alloca ptr, align 8
  %4 = alloca i32, align 4
  store ptr %0, ptr %3, align 8, !tbaa !7
  store i32 %1, ptr %4, align 4, !tbaa !3
  %5 = load ptr, ptr %3, align 8, !tbaa !7
  %6 = getelementptr inbounds nuw %struct.Mop_Man_t_, ptr %5, i32 0, i32 5
  %7 = load ptr, ptr %6, align 8, !tbaa !18
  %8 = load ptr, ptr %3, align 8, !tbaa !7
  %9 = getelementptr inbounds nuw %struct.Mop_Man_t_, ptr %8, i32 0, i32 3
  %10 = load i32, ptr %9, align 4, !tbaa !16
  %11 = load i32, ptr %4, align 4, !tbaa !3
  %12 = mul nsw i32 %10, %11
  %13 = call ptr @Vec_WrdEntryP(ptr noundef %7, i32 noundef %12)
  ret ptr %13
}

; Function Attrs: inlinehint nounwind uwtable
define internal i32 @Vec_IntEntry(ptr noundef %0, i32 noundef %1) #3 {
  %3 = alloca ptr, align 8
  %4 = alloca i32, align 4
  store ptr %0, ptr %3, align 8, !tbaa !26
  store i32 %1, ptr %4, align 4, !tbaa !3
  %5 = load ptr, ptr %3, align 8, !tbaa !26
  %6 = getelementptr inbounds nuw %struct.Vec_Int_t_, ptr %5, i32 0, i32 2
  %7 = load ptr, ptr %6, align 8, !tbaa !31
  %8 = load i32, ptr %4, align 4, !tbaa !3
  %9 = sext i32 %8 to i64
  %10 = getelementptr inbounds i32, ptr %7, i64 %9
  %11 = load i32, ptr %10, align 4, !tbaa !3
  ret i32 %11
}

; Function Attrs: inlinehint nounwind uwtable
define internal i32 @Vec_IntSize(ptr noundef %0) #3 {
  %2 = alloca ptr, align 8
  store ptr %0, ptr %2, align 8, !tbaa !26
  %3 = load ptr, ptr %2, align 8, !tbaa !26
  %4 = getelementptr inbounds nuw %struct.Vec_Int_t_, ptr %3, i32 0, i32 1
  %5 = load i32, ptr %4, align 4, !tbaa !27
  ret i32 %5
}

; Function Attrs: inlinehint nounwind uwtable
define internal void @Mop_ManRemoveEmpty(ptr noundef %0) #3 {
  %2 = alloca ptr, align 8
  %3 = alloca i32, align 4
  %4 = alloca i32, align 4
  %5 = alloca i32, align 4
  %6 = alloca i32, align 4
  %7 = alloca ptr, align 8
  store ptr %0, ptr %2, align 8, !tbaa !7
  call void @llvm.lifetime.start.p0(i64 4, ptr %3) #13
  call void @llvm.lifetime.start.p0(i64 4, ptr %4) #13
  call void @llvm.lifetime.start.p0(i64 4, ptr %5) #13
  store i32 0, ptr %5, align 4, !tbaa !3
  call void @llvm.lifetime.start.p0(i64 4, ptr %6) #13
  store i32 0, ptr %4, align 4, !tbaa !3
  br label %8

8:                                                ; preds = %59, %1
  %9 = load i32, ptr %4, align 4, !tbaa !3
  %10 = load ptr, ptr %2, align 8, !tbaa !7
  %11 = getelementptr inbounds nuw %struct.Mop_Man_t_, ptr %10, i32 0, i32 6
  %12 = load ptr, ptr %11, align 8, !tbaa !19
  %13 = call i32 @Vec_IntSize(ptr noundef %12)
  %14 = icmp slt i32 %9, %13
  br i1 %14, label %15, label %21

15:                                               ; preds = %8
  %16 = load ptr, ptr %2, align 8, !tbaa !7
  %17 = getelementptr inbounds nuw %struct.Mop_Man_t_, ptr %16, i32 0, i32 6
  %18 = load ptr, ptr %17, align 8, !tbaa !19
  %19 = load i32, ptr %4, align 4, !tbaa !3
  %20 = call i32 @Vec_IntEntry(ptr noundef %18, i32 noundef %19)
  store i32 %20, ptr %6, align 4, !tbaa !3
  br label %21

21:                                               ; preds = %15, %8
  %22 = phi i1 [ false, %8 ], [ true, %15 ]
  br i1 %22, label %23, label %62

23:                                               ; preds = %21
  call void @llvm.lifetime.start.p0(i64 8, ptr %7) #13
  %24 = load ptr, ptr %2, align 8, !tbaa !7
  %25 = load i32, ptr %6, align 4, !tbaa !3
  %26 = call ptr @Mop_ManCubeOut(ptr noundef %24, i32 noundef %25)
  store ptr %26, ptr %7, align 8, !tbaa !42
  store i32 0, ptr %3, align 4, !tbaa !3
  br label %27

27:                                               ; preds = %42, %23
  %28 = load i32, ptr %3, align 4, !tbaa !3
  %29 = load ptr, ptr %2, align 8, !tbaa !7
  %30 = getelementptr inbounds nuw %struct.Mop_Man_t_, ptr %29, i32 0, i32 3
  %31 = load i32, ptr %30, align 4, !tbaa !16
  %32 = icmp slt i32 %28, %31
  br i1 %32, label %33, label %45

33:                                               ; preds = %27
  %34 = load ptr, ptr %7, align 8, !tbaa !42
  %35 = load i32, ptr %3, align 4, !tbaa !3
  %36 = sext i32 %35 to i64
  %37 = getelementptr inbounds i64, ptr %34, i64 %36
  %38 = load i64, ptr %37, align 8, !tbaa !48
  %39 = icmp ne i64 %38, 0
  br i1 %39, label %40, label %41

40:                                               ; preds = %33
  br label %45

41:                                               ; preds = %33
  br label %42

42:                                               ; preds = %41
  %43 = load i32, ptr %3, align 4, !tbaa !3
  %44 = add nsw i32 %43, 1
  store i32 %44, ptr %3, align 4, !tbaa !3
  br label %27, !llvm.loop !131

45:                                               ; preds = %40, %27
  %46 = load i32, ptr %3, align 4, !tbaa !3
  %47 = load ptr, ptr %2, align 8, !tbaa !7
  %48 = getelementptr inbounds nuw %struct.Mop_Man_t_, ptr %47, i32 0, i32 3
  %49 = load i32, ptr %48, align 4, !tbaa !16
  %50 = icmp slt i32 %46, %49
  br i1 %50, label %51, label %58

51:                                               ; preds = %45
  %52 = load ptr, ptr %2, align 8, !tbaa !7
  %53 = getelementptr inbounds nuw %struct.Mop_Man_t_, ptr %52, i32 0, i32 6
  %54 = load ptr, ptr %53, align 8, !tbaa !19
  %55 = load i32, ptr %5, align 4, !tbaa !3
  %56 = add nsw i32 %55, 1
  store i32 %56, ptr %5, align 4, !tbaa !3
  %57 = load i32, ptr %6, align 4, !tbaa !3
  call void @Vec_IntWriteEntry(ptr noundef %54, i32 noundef %55, i32 noundef %57)
  br label %58

58:                                               ; preds = %51, %45
  call void @llvm.lifetime.end.p0(i64 8, ptr %7) #13
  br label %59

59:                                               ; preds = %58
  %60 = load i32, ptr %4, align 4, !tbaa !3
  %61 = add nsw i32 %60, 1
  store i32 %61, ptr %4, align 4, !tbaa !3
  br label %8, !llvm.loop !132

62:                                               ; preds = %21
  %63 = load ptr, ptr %2, align 8, !tbaa !7
  %64 = getelementptr inbounds nuw %struct.Mop_Man_t_, ptr %63, i32 0, i32 6
  %65 = load ptr, ptr %64, align 8, !tbaa !19
  %66 = load i32, ptr %5, align 4, !tbaa !3
  call void @Vec_IntShrink(ptr noundef %65, i32 noundef %66)
  call void @llvm.lifetime.end.p0(i64 4, ptr %6) #13
  call void @llvm.lifetime.end.p0(i64 4, ptr %5) #13
  call void @llvm.lifetime.end.p0(i64 4, ptr %4) #13
  call void @llvm.lifetime.end.p0(i64 4, ptr %3) #13
  ret void
}

; Function Attrs: nounwind uwtable
define ptr @Mop_ManTest(ptr noundef %0, i32 noundef %1, i32 noundef %2) #0 {
  %4 = alloca ptr, align 8
  %5 = alloca ptr, align 8
  %6 = alloca i32, align 4
  %7 = alloca i32, align 4
  %8 = alloca ptr, align 8
  %9 = alloca ptr, align 8
  %10 = alloca i32, align 4
  store ptr %0, ptr %5, align 8, !tbaa !32
  store i32 %1, ptr %6, align 4, !tbaa !3
  store i32 %2, ptr %7, align 4, !tbaa !3
  call void @llvm.lifetime.start.p0(i64 8, ptr %8) #13
  store ptr null, ptr %8, align 8, !tbaa !103
  call void @llvm.lifetime.start.p0(i64 8, ptr %9) #13
  %11 = load ptr, ptr %5, align 8, !tbaa !32
  %12 = call ptr @Mop_ManRead(ptr noundef %11)
  store ptr %12, ptr %9, align 8, !tbaa !7
  %13 = load ptr, ptr %9, align 8, !tbaa !7
  %14 = icmp eq ptr %13, null
  br i1 %14, label %15, label %16

15:                                               ; preds = %3
  store ptr null, ptr %4, align 8
  store i32 1, ptr %10, align 4
  br label %30

16:                                               ; preds = %3
  %17 = load ptr, ptr %9, align 8, !tbaa !7
  call void @Mop_ManRemoveEmpty(ptr noundef %17)
  %18 = load i32, ptr %6, align 4, !tbaa !3
  %19 = icmp ne i32 %18, 0
  br i1 %19, label %20, label %22

20:                                               ; preds = %16
  %21 = load ptr, ptr %9, align 8, !tbaa !7
  call void @Mop_ManReduce2(ptr noundef %21)
  br label %24

22:                                               ; preds = %16
  %23 = load ptr, ptr %9, align 8, !tbaa !7
  call void @Mop_ManReduce(ptr noundef %23)
  br label %24

24:                                               ; preds = %22, %20
  %25 = load ptr, ptr %9, align 8, !tbaa !7
  %26 = load ptr, ptr %5, align 8, !tbaa !32
  %27 = call ptr @Mop_ManDerive(ptr noundef %25, ptr noundef %26)
  store ptr %27, ptr %8, align 8, !tbaa !103
  %28 = load ptr, ptr %9, align 8, !tbaa !7
  call void @Mop_ManStop(ptr noundef %28)
  %29 = load ptr, ptr %8, align 8, !tbaa !103
  store ptr %29, ptr %4, align 8
  store i32 1, ptr %10, align 4
  br label %30

30:                                               ; preds = %24, %15
  call void @llvm.lifetime.end.p0(i64 8, ptr %9) #13
  call void @llvm.lifetime.end.p0(i64 8, ptr %8) #13
  %31 = load ptr, ptr %4, align 8
  ret ptr %31
}