; Function Attrs: nounwind uwtable
define ptr @Mop_ManTest(ptr noundef %0, i32 noundef %1, i32 noundef %2) local_unnamed_addr #5 {
  %4 = tail call ptr @Mop_ManRead(ptr noundef %0)
  %5 = icmp eq ptr %4, null
  br i1 %5, label %35, label %6

6:                                                ; preds = %3
  %7 = getelementptr inbounds nuw i8, ptr %4, i64 32
  %8 = load ptr, ptr %7, align 8, !tbaa !26
  %9 = getelementptr i8, ptr %8, i64 4
  %.val2126.i = load i32, ptr %9, align 4, !tbaa !21
  %10 = icmp sgt i32 %.val2126.i, 0
  br i1 %10, label %.lr.ph29.i, label %Mop_ManRemoveEmpty.exit

.lr.ph29.i:                                       ; preds = %6
  %11 = getelementptr i8, ptr %8, i64 8
  %.val22.i = load ptr, ptr %11, align 8, !tbaa !25
  %12 = getelementptr i8, ptr %4, i64 12
  %13 = getelementptr i8, ptr %4, i64 24
  %.val20.i = load ptr, ptr %13, align 8, !tbaa !20
  %14 = getelementptr i8, ptr %.val20.i, i64 8
  %.val20.val.i = load ptr, ptr %14, align 8, !tbaa !17
  %15 = load i32, ptr %12, align 4, !tbaa !13
  %16 = icmp sgt i32 %15, 0
  br i1 %16, label %.lr.ph29.split.i.preheader, label %Mop_ManRemoveEmpty.exit

.lr.ph29.split.i.preheader:                       ; preds = %.lr.ph29.i
  %wide.trip.count.i = zext nneg i32 %15 to i64
  br label %.lr.ph29.split.i

.lr.ph29.split.i:                                 ; preds = %.lr.ph29.split.i.preheader, %.loopexit.i
  %.val2137.i = phi i32 [ %.val21.i, %.loopexit.i ], [ %.val2126.i, %.lr.ph29.split.i.preheader ]
  %indvars.iv34.i = phi i64 [ %indvars.iv.next35.i, %.loopexit.i ], [ 0, %.lr.ph29.split.i.preheader ]
  %.01927.i = phi i32 [ %.1.i, %.loopexit.i ], [ 0, %.lr.ph29.split.i.preheader ]
  %17 = getelementptr inbounds nuw i32, ptr %.val22.i, i64 %indvars.iv34.i
  %18 = load i32, ptr %17, align 4, !tbaa !28
  %19 = mul nsw i32 %18, %15
  %20 = sext i32 %19 to i64
  %21 = getelementptr inbounds i64, ptr %.val20.val.i, i64 %20
  br label %.lr.ph.i

22:                                               ; preds = %.lr.ph.i
  %indvars.iv.next.i = add nuw nsw i64 %indvars.iv.i, 1
  %exitcond.not.i = icmp eq i64 %indvars.iv.next.i, %wide.trip.count.i
  br i1 %exitcond.not.i, label %.loopexit.i, label %.lr.ph.i, !llvm.loop !131

.lr.ph.i:                                         ; preds = %22, %.lr.ph29.split.i
  %indvars.iv.i = phi i64 [ 0, %.lr.ph29.split.i ], [ %indvars.iv.next.i, %22 ]
  %23 = getelementptr inbounds nuw i64, ptr %21, i64 %indvars.iv.i
  %24 = load i64, ptr %23, align 8, !tbaa !39
  %.not.i = icmp eq i64 %24, 0
  br i1 %.not.i, label %22, label %25

25:                                               ; preds = %.lr.ph.i
  %26 = add nsw i32 %.01927.i, 1
  %27 = sext i32 %.01927.i to i64
  %28 = getelementptr inbounds i32, ptr %.val22.i, i64 %27
  store i32 %18, ptr %28, align 4, !tbaa !28
  %.val21.pre.i = load i32, ptr %9, align 4, !tbaa !21
  br label %.loopexit.i

.loopexit.i:                                      ; preds = %22, %25
  %.val21.i = phi i32 [ %.val21.pre.i, %25 ], [ %.val2137.i, %22 ]
  %.1.i = phi i32 [ %26, %25 ], [ %.01927.i, %22 ]
  %indvars.iv.next35.i = add nuw nsw i64 %indvars.iv34.i, 1
  %29 = sext i32 %.val21.i to i64
  %30 = icmp slt i64 %indvars.iv.next35.i, %29
  br i1 %30, label %.lr.ph29.split.i, label %Mop_ManRemoveEmpty.exit, !llvm.loop !132

Mop_ManRemoveEmpty.exit:                          ; preds = %.loopexit.i, %6, %.lr.ph29.i
  %.019.lcssa.i = phi i32 [ 0, %6 ], [ 0, %.lr.ph29.i ], [ %.1.i, %.loopexit.i ]
  store i32 %.019.lcssa.i, ptr %9, align 4, !tbaa !21
  %.not = icmp eq i32 %1, 0
  br i1 %.not, label %32, label %31

31:                                               ; preds = %Mop_ManRemoveEmpty.exit
  tail call void @Mop_ManReduce2(ptr noundef nonnull %4)
  br label %33

32:                                               ; preds = %Mop_ManRemoveEmpty.exit
  tail call void @Mop_ManReduce(ptr noundef nonnull %4)
  br label %33

33:                                               ; preds = %32, %31
  %34 = tail call ptr @Mop_ManDerive(ptr noundef nonnull %4, ptr noundef %0)
  tail call void @Mop_ManStop(ptr noundef nonnull %4)
  br label %35

35:                                               ; preds = %3, %33
  %.0 = phi ptr [ %34, %33 ], [ null, %3 ]
  ret ptr %.0
}